target datalayout = "e-m:e-p270:32:32-p271:32:32-p272:64:64-i64:64-i128:128-f80:128-n8:16:32:64-S128"
target triple = "x86_64-pc-linux-gnu"

; Function Attrs: mustprogress uwtable
define noundef zeroext i1 @_ZN7rocksdb21FullFilterBlockReader11KeyMayMatchERKNS_5SliceEPS2_PNS_10GetContextEPNS_23BlockCacheLookupContextERKNS_11ReadOptionsE(ptr noundef nonnull align 8 dereferenceable(57) %0, ptr noundef nonnull align 8 dereferenceable(16) %1, ptr noundef %2, ptr noundef %3, ptr noundef %4, ptr noundef nonnull align 8 dereferenceable(168) %5) unnamed_addr #5 align 2 {
  %7 = alloca i1, align 1
  %8 = alloca ptr, align 8
  %9 = alloca ptr, align 8
  %10 = alloca ptr, align 8
  %11 = alloca ptr, align 8
  %12 = alloca ptr, align 8
  %13 = alloca ptr, align 8
  store ptr %0, ptr %8, align 8, !tbaa !59
  store ptr %1, ptr %9, align 8, !tbaa !52
  store ptr %2, ptr %10, align 8, !tbaa !52
  store ptr %3, ptr %11, align 8, !tbaa !76
  store ptr %4, ptr %12, align 8, !tbaa !78
  store ptr %5, ptr %13, align 8, !tbaa !80
  %14 = load ptr, ptr %8, align 8
  %15 = call noundef zeroext i1 @_ZNK7rocksdb23FilterBlockReaderCommonINS_21ParsedFullFilterBlockEE19whole_key_filteringEv(ptr noundef nonnull align 8 dereferenceable(57) %14)
  br i1 %15, label %17, label %16

16:                                               ; preds = %6
  store i1 true, ptr %7, align 1
  br label %23

17:                                               ; preds = %6
  %18 = load ptr, ptr %9, align 8, !tbaa !52
  %19 = load ptr, ptr %11, align 8, !tbaa !76
  %20 = load ptr, ptr %12, align 8, !tbaa !78
  %21 = load ptr, ptr %13, align 8, !tbaa !80
  %22 = call noundef zeroext i1 @_ZNK7rocksdb21FullFilterBlockReader8MayMatchERKNS_5SliceEPNS_10GetContextEPNS_23BlockCacheLookupContextERKNS_11ReadOptionsE(ptr noundef nonnull align 8 dereferenceable(57) %14, ptr noundef nonnull align 8 dereferenceable(16) %18, ptr noundef %19, ptr noundef %20, ptr noundef nonnull align 8 dereferenceable(168) %21)
  store i1 %22, ptr %7, align 1
  br label %23

23:                                               ; preds = %17, %16
  %24 = load i1, ptr %7, align 1
  ret i1 %24
}