; Function Attrs: mustprogress uwtable
define noundef zeroext i1 @_ZN7rocksdb21FullFilterBlockReader11KeyMayMatchERKNS_5SliceEPS2_PNS_10GetContextEPNS_23BlockCacheLookupContextERKNS_11ReadOptionsE(ptr noundef nonnull align 8 dereferenceable(57) %0, ptr noundef nonnull align 8 dereferenceable(16) %1, ptr readnone captures(none) %2, ptr noundef %3, ptr noundef %4, ptr noundef nonnull align 8 dereferenceable(168) %5) unnamed_addr #4 align 2 {
  %7 = tail call noundef zeroext i1 @_ZNK7rocksdb23FilterBlockReaderCommonINS_21ParsedFullFilterBlockEE19whole_key_filteringEv(ptr noundef nonnull align 8 dereferenceable(57) %0)
  br i1 %7, label %8, label %10

8:                                                ; preds = %6
  %9 = tail call noundef zeroext i1 @_ZNK7rocksdb21FullFilterBlockReader8MayMatchERKNS_5SliceEPNS_10GetContextEPNS_23BlockCacheLookupContextERKNS_11ReadOptionsE(ptr noundef nonnull align 8 dereferenceable(57) %0, ptr noundef nonnull align 8 dereferenceable(16) %1, ptr noundef %3, ptr noundef %4, ptr noundef nonnull align 8 dereferenceable(168) %5)
  br label %10

10:                                               ; preds = %6, %8
  %.0 = phi i1 [ %9, %8 ], [ true, %6 ]
  ret i1 %.0
}